; Function Attrs: mustprogress nounwind uwtable
define void @_ZN7glslang14TPoolAllocatorD2Ev(ptr nocapture noundef nonnull align 8 dereferenceable(96) %0) unnamed_addr #0 align 2 {
  %2 = getelementptr inbounds i8, ptr %0, i64 48
  %3 = load ptr, ptr %2, align 8
  %.not6 = icmp eq ptr %3, null
  br i1 %.not6, label %.preheader, label %.lr.ph

.preheader:                                       ; preds = %.lr.ph, %1
  %4 = getelementptr inbounds i8, ptr %0, i64 40
  %5 = load ptr, ptr %4, align 8
  %.not57 = icmp eq ptr %5, null
  br i1 %.not57, label %._crit_edge, label %.lr.ph8

.lr.ph:                                           ; preds = %1, %.lr.ph
  %6 = phi ptr [ %7, %.lr.ph ], [ %3, %1 ]
  %7 = load ptr, ptr %6, align 8
  tail call void @_ZdaPv(ptr noundef nonnull %6) #13
  store ptr %7, ptr %2, align 8
  %.not = icmp eq ptr %7, null
  br i1 %.not, label %.preheader, label %.lr.ph, !llvm.loop !7

.lr.ph8:                                          ; preds = %.preheader, %.lr.ph8
  %8 = phi ptr [ %9, %.lr.ph8 ], [ %5, %.preheader ]
  %9 = load ptr, ptr %8, align 8
  tail call void @_ZdaPv(ptr noundef nonnull %8) #13
  store ptr %9, ptr %4, align 8
  %.not5 = icmp eq ptr %9, null
  br i1 %.not5, label %._crit_edge, label %.lr.ph8, !llvm.loop !8

._crit_edge:                                      ; preds = %.lr.ph8, %.preheader
  %10 = getelementptr inbounds i8, ptr %0, i64 56
  %11 = load ptr, ptr %10, align 8
  %.not.i.i.i = icmp eq ptr %11, null
  br i1 %.not.i.i.i, label %_ZNSt6vectorIN7glslang14TPoolAllocator11tAllocStateESaIS2_EED2Ev.exit, label %12

12:                                               ; preds = %._crit_edge
  %13 = getelementptr inbounds i8, ptr %0, i64 72
  %14 = load ptr, ptr %13, align 8
  %15 = ptrtoint ptr %14 to i64
  %16 = ptrtoint ptr %11 to i64
  %17 = sub i64 %15, %16
  tail call void @_ZdlPvm(ptr noundef nonnull %11, i64 noundef %17) #13
  br label %_ZNSt6vectorIN7glslang14TPoolAllocator11tAllocStateESaIS2_EED2Ev.exit

_ZNSt6vectorIN7glslang14TPoolAllocator11tAllocStateESaIS2_EED2Ev.exit: ; preds = %._crit_edge, %12
  ret void
}